; Function Attrs: null_pointer_is_valid sspstrong uwtable
define internal void @dissect_zcl_binary_output_basic_attr_data(ptr noundef %0, ptr noundef %1, ptr noundef %2, i16 noundef zeroext %3, i32 noundef %4, i1 noundef zeroext %5) #0 {
  switch i16 %3, label %48 [
    i16 87, label %7
    i16 84, label %29
    i16 103, label %35
    i16 111, label %41
  ]

7:                                                ; preds = %6
  %8 = load i32, ptr @hf_zbee_zcl_binary_output_basic_priority_array, align 4
  %9 = load i32, ptr %2, align 4
  %10 = tail call ptr @proto_tree_add_item(ptr noundef %0, i32 noundef %8, ptr noundef %1, i32 noundef %9, i32 noundef 80, i32 noundef 0)
  %11 = load i32, ptr @ett_zbee_zcl_binary_output_basic_priority_array, align 4
  %12 = tail call ptr @proto_item_add_subtree(ptr noundef %10, i32 noundef %11)
  %.pre = load i32, ptr %2, align 4
  br label %13

13:                                               ; preds = %7, %13
  %14 = phi i32 [ %.pre, %7 ], [ %27, %13 ]
  %.037 = phi i32 [ 1, %7 ], [ %28, %13 ]
  %15 = load i32, ptr @hf_zbee_zcl_binary_output_basic_structure, align 4
  %16 = tail call ptr @proto_tree_add_item(ptr noundef %12, i32 noundef %15, ptr noundef %1, i32 noundef %14, i32 noundef 5, i32 noundef 0)
  tail call void (ptr, ptr, ...) @proto_item_append_text(ptr noundef %16, ptr noundef nonnull @.str.1415, i32 noundef %.037)
  %17 = load i32, ptr @ett_zbee_zcl_binary_output_basic_priority_array_structure, align 4
  %18 = tail call ptr @proto_item_add_subtree(ptr noundef %16, i32 noundef %17)
  %19 = load i32, ptr @hf_zbee_zcl_binary_output_basic_priority_array_bool, align 4
  %20 = load i32, ptr %2, align 4
  %21 = tail call ptr @proto_tree_add_item(ptr noundef %18, i32 noundef %19, ptr noundef %1, i32 noundef %20, i32 noundef 1, i32 noundef -2147483648)
  %22 = load i32, ptr %2, align 4
  %23 = add i32 %22, 1
  store i32 %23, ptr %2, align 4
  %24 = load i32, ptr @hf_zbee_zcl_binary_output_basic_priority_array_sing_prec, align 4
  %25 = tail call ptr @proto_tree_add_item(ptr noundef %18, i32 noundef %24, ptr noundef %1, i32 noundef %23, i32 noundef 4, i32 noundef -2147483648)
  %26 = load i32, ptr %2, align 4
  %27 = add i32 %26, 4
  store i32 %27, ptr %2, align 4
  %28 = add nuw nsw i32 %.037, 1
  %exitcond.not = icmp eq i32 %28, 17
  br i1 %exitcond.not, label %.loopexit, label %13, !llvm.loop !15

29:                                               ; preds = %6
  %30 = load i32, ptr @hf_zbee_zcl_binary_output_basic_polarity, align 4
  %31 = load i32, ptr %2, align 4
  %32 = tail call ptr @proto_tree_add_item(ptr noundef %0, i32 noundef %30, ptr noundef %1, i32 noundef %31, i32 noundef 1, i32 noundef 0)
  %33 = load i32, ptr %2, align 4
  %34 = add i32 %33, 1
  store i32 %34, ptr %2, align 4
  br label %.loopexit

35:                                               ; preds = %6
  %36 = load i32, ptr @hf_zbee_zcl_binary_output_basic_reliability, align 4
  %37 = load i32, ptr %2, align 4
  %38 = tail call ptr @proto_tree_add_item(ptr noundef %0, i32 noundef %36, ptr noundef %1, i32 noundef %37, i32 noundef 1, i32 noundef 0)
  %39 = load i32, ptr %2, align 4
  %40 = add i32 %39, 1
  store i32 %40, ptr %2, align 4
  br label %.loopexit

41:                                               ; preds = %6
  %42 = load i32, ptr %2, align 4
  %43 = load i32, ptr @hf_zbee_zcl_binary_output_basic_status_flags, align 4
  %44 = load i32, ptr @ett_zbee_zcl_binary_output_basic_status_flags, align 4
  %45 = tail call ptr @proto_tree_add_bitmask(ptr noundef %0, ptr noundef %1, i32 noundef %42, i32 noundef %43, i32 noundef %44, ptr noundef nonnull @dissect_zcl_binary_output_basic_attr_data.status_flags, i32 noundef -2147483648)
  %46 = load i32, ptr %2, align 4
  %47 = add i32 %46, 1
  store i32 %47, ptr %2, align 4
  br label %.loopexit

48:                                               ; preds = %6
  tail call void @dissect_zcl_attr_data(ptr noundef %1, ptr noundef %0, ptr noundef %2, i32 noundef %4, i1 noundef zeroext %5)
  br label %.loopexit

.loopexit:                                        ; preds = %13, %48, %41, %35, %29
  ret void
}